; Function Attrs: mustprogress uwtable
define internal fastcc void @_ZZNK8facebook5velox9functions12_GLOBAL__N_122DecimalBetweenFunctionIlE5applyERKNS0_17SelectivityVectorERSt6vectorISt10shared_ptrINS0_10BaseVectorEESaISB_EERKS9_IKNS0_4TypeEERNS0_4exec7EvalCtxERSB_ENKUlT_E4_clIiEEDaSO_(ptr nocapture noundef nonnull readonly align 8 dereferenceable(56) %this, i32 noundef %row) unnamed_addr #0 align 2 personality ptr @__gxx_personality_v0 {
entry:
  %0 = load ptr, ptr %this, align 8
  %1 = load ptr, ptr %0, align 8
  %2 = getelementptr inbounds i8, ptr %this, i64 8
  %3 = load ptr, ptr %2, align 8
  %4 = load ptr, ptr %3, align 8
  %isIdentityMapping_.i = getelementptr inbounds i8, ptr %4, i64 58
  %5 = load i8, ptr %isIdentityMapping_.i, align 2
  %6 = and i8 %5, 1
  %tobool.not.i = icmp eq i8 %6, 0
  br i1 %tobool.not.i, label %if.end.i, label %_ZNK8facebook5velox13DecodedVector5indexEi.exit

if.end.i:                                         ; preds = %entry
  %isConstantMapping_.i = getelementptr inbounds i8, ptr %4, i64 59
  %7 = load i8, ptr %isConstantMapping_.i, align 1
  %8 = and i8 %7, 1
  %tobool2.not.i = icmp eq i8 %8, 0
  br i1 %tobool2.not.i, label %if.end4.i, label %if.then3.i

if.then3.i:                                       ; preds = %if.end.i
  %constantIndex_.i = getelementptr inbounds i8, ptr %4, i64 64
  %9 = load i32, ptr %constantIndex_.i, align 8
  br label %_ZNK8facebook5velox13DecodedVector5indexEi.exit

if.end4.i:                                        ; preds = %if.end.i
  %indices_.i = getelementptr inbounds i8, ptr %4, i64 8
  %10 = load ptr, ptr %indices_.i, align 8
  %idxprom.i = sext i32 %row to i64
  %arrayidx.i = getelementptr inbounds i32, ptr %10, i64 %idxprom.i
  %11 = load i32, ptr %arrayidx.i, align 4
  br label %_ZNK8facebook5velox13DecodedVector5indexEi.exit

_ZNK8facebook5velox13DecodedVector5indexEi.exit:  ; preds = %entry, %if.then3.i, %if.end4.i
  %retval.0.i = phi i32 [ %9, %if.then3.i ], [ %11, %if.end4.i ], [ %row, %entry ]
  %idxprom = sext i32 %retval.0.i to i64
  %arrayidx = getelementptr inbounds i64, ptr %1, i64 %idxprom
  %12 = load i64, ptr %arrayidx, align 8
  %13 = getelementptr inbounds i8, ptr %this, i64 16
  %14 = load ptr, ptr %13, align 8
  %15 = load ptr, ptr %14, align 8
  %16 = getelementptr inbounds i8, ptr %this, i64 24
  %17 = load ptr, ptr %16, align 8
  %18 = load ptr, ptr %17, align 8
  %isIdentityMapping_.i5 = getelementptr inbounds i8, ptr %18, i64 58
  %19 = load i8, ptr %isIdentityMapping_.i5, align 2
  %20 = and i8 %19, 1
  %tobool.not.i6 = icmp eq i8 %20, 0
  br i1 %tobool.not.i6, label %if.end.i8, label %_ZNK8facebook5velox13DecodedVector5indexEi.exit17

if.end.i8:                                        ; preds = %_ZNK8facebook5velox13DecodedVector5indexEi.exit
  %isConstantMapping_.i9 = getelementptr inbounds i8, ptr %18, i64 59
  %21 = load i8, ptr %isConstantMapping_.i9, align 1
  %22 = and i8 %21, 1
  %tobool2.not.i10 = icmp eq i8 %22, 0
  br i1 %tobool2.not.i10, label %if.end4.i13, label %if.then3.i11

if.then3.i11:                                     ; preds = %if.end.i8
  %constantIndex_.i12 = getelementptr inbounds i8, ptr %18, i64 64
  %23 = load i32, ptr %constantIndex_.i12, align 8
  br label %_ZNK8facebook5velox13DecodedVector5indexEi.exit17

if.end4.i13:                                      ; preds = %if.end.i8
  %indices_.i14 = getelementptr inbounds i8, ptr %18, i64 8
  %24 = load ptr, ptr %indices_.i14, align 8
  %idxprom.i15 = sext i32 %row to i64
  %arrayidx.i16 = getelementptr inbounds i32, ptr %24, i64 %idxprom.i15
  %25 = load i32, ptr %arrayidx.i16, align 4
  br label %_ZNK8facebook5velox13DecodedVector5indexEi.exit17

_ZNK8facebook5velox13DecodedVector5indexEi.exit17: ; preds = %_ZNK8facebook5velox13DecodedVector5indexEi.exit, %if.then3.i11, %if.end4.i13
  %retval.0.i7 = phi i32 [ %23, %if.then3.i11 ], [ %25, %if.end4.i13 ], [ %row, %_ZNK8facebook5velox13DecodedVector5indexEi.exit ]
  %idxprom3 = sext i32 %retval.0.i7 to i64
  %arrayidx4 = getelementptr inbounds i64, ptr %15, i64 %idxprom3
  %26 = load i64, ptr %arrayidx4, align 8
  %27 = getelementptr inbounds i8, ptr %this, i64 32
  %28 = load ptr, ptr %27, align 8
  %29 = load ptr, ptr %28, align 8
  %30 = getelementptr inbounds i8, ptr %this, i64 40
  %31 = load ptr, ptr %30, align 8
  %32 = load ptr, ptr %31, align 8
  %isIdentityMapping_.i18 = getelementptr inbounds i8, ptr %32, i64 58
  %33 = load i8, ptr %isIdentityMapping_.i18, align 2
  %34 = and i8 %33, 1
  %tobool.not.i19 = icmp eq i8 %34, 0
  br i1 %tobool.not.i19, label %if.end.i21, label %_ZNK8facebook5velox13DecodedVector5indexEi.exit30

if.end.i21:                                       ; preds = %_ZNK8facebook5velox13DecodedVector5indexEi.exit17
  %isConstantMapping_.i22 = getelementptr inbounds i8, ptr %32, i64 59
  %35 = load i8, ptr %isConstantMapping_.i22, align 1
  %36 = and i8 %35, 1
  %tobool2.not.i23 = icmp eq i8 %36, 0
  br i1 %tobool2.not.i23, label %if.end4.i26, label %if.then3.i24

if.then3.i24:                                     ; preds = %if.end.i21
  %constantIndex_.i25 = getelementptr inbounds i8, ptr %32, i64 64
  %37 = load i32, ptr %constantIndex_.i25, align 8
  br label %_ZNK8facebook5velox13DecodedVector5indexEi.exit30

if.end4.i26:                                      ; preds = %if.end.i21
  %indices_.i27 = getelementptr inbounds i8, ptr %32, i64 8
  %38 = load ptr, ptr %indices_.i27, align 8
  %idxprom.i28 = sext i32 %row to i64
  %arrayidx.i29 = getelementptr inbounds i32, ptr %38, i64 %idxprom.i28
  %39 = load i32, ptr %arrayidx.i29, align 4
  br label %_ZNK8facebook5velox13DecodedVector5indexEi.exit30

_ZNK8facebook5velox13DecodedVector5indexEi.exit30: ; preds = %_ZNK8facebook5velox13DecodedVector5indexEi.exit17, %if.then3.i24, %if.end4.i26
  %retval.0.i20 = phi i32 [ %37, %if.then3.i24 ], [ %39, %if.end4.i26 ], [ %row, %_ZNK8facebook5velox13DecodedVector5indexEi.exit17 ]
  %idxprom6 = sext i32 %retval.0.i20 to i64
  %arrayidx7 = getelementptr inbounds i64, ptr %29, i64 %idxprom6
  %40 = load i64, ptr %arrayidx7, align 8
  %41 = getelementptr inbounds i8, ptr %this, i64 48
  %42 = load ptr, ptr %41, align 8
  %43 = load ptr, ptr %42, align 8
  %cmp = icmp sge i64 %12, %26
  %cmp10 = icmp sle i64 %12, %40
  %44 = select i1 %cmp, i1 %cmp10, i1 false
  tail call void @_ZN8facebook5velox10FlatVectorIbE3setEib(ptr noundef nonnull align 8 dereferenceable(184) %43, i32 noundef %row, i1 noundef zeroext %44)
  ret void
}